; Function Attrs: null_pointer_is_valid sspstrong uwtable
define hidden noundef ptr @epl_wmem_iarray_find(ptr noundef captures(none) %0, i32 noundef %1) local_unnamed_addr #0 {
  tail call fastcc void @epl_wmem_iarray_sort_and_compact(ptr noundef %0)
  %3 = getelementptr inbounds nuw i8, ptr %0, i64 16
  %4 = load ptr, ptr %3, align 8
  %5 = load ptr, ptr %4, align 8
  %6 = getelementptr inbounds nuw i8, ptr %4, i64 8
  %7 = load i32, ptr %6, align 8
  %8 = tail call i32 @g_array_get_element_size(ptr noundef %4)
  %9 = zext i32 %8 to i64
  %.not24.i.i = icmp eq i32 %7, 0
  br i1 %.not24.i.i, label %bsearch_garray.exit, label %.lr.ph.i.preheader.i

.lr.ph.i.preheader.i:                             ; preds = %2
  %10 = zext i32 %7 to i64
  br label %.lr.ph.i.i

.lr.ph.i.i:                                       ; preds = %20, %.lr.ph.i.preheader.i
  %.01621.i.i = phi i64 [ %.1.i.i, %20 ], [ 0, %.lr.ph.i.preheader.i ]
  %.01720.i.i = phi i64 [ %.118.i.i, %20 ], [ %10, %.lr.ph.i.preheader.i ]
  %11 = add i64 %.01720.i.i, %.01621.i.i
  %12 = lshr i64 %11, 1
  %13 = mul i64 %12, %9
  %14 = getelementptr i8, ptr %5, i64 %13
  %15 = getelementptr inbounds nuw i8, ptr %14, i64 4
  %16 = load i32, ptr %15, align 4
  %.not.i5.i = icmp ugt i32 %1, %16
  %.pre.i.i = load i32, ptr %14, align 4
  %.not8.i.i = icmp ugt i32 %.pre.i.i, %1
  %or.cond.i = select i1 %.not.i5.i, i1 true, i1 %.not8.i.i
  br i1 %or.cond.i, label %find_in_range.exit.i, label %bsearch_garray.exit

find_in_range.exit.i:                             ; preds = %.lr.ph.i.i
  br i1 %.not8.i.i, label %20, label %17

17:                                               ; preds = %find_in_range.exit.i
  %.not.i.i = icmp eq i32 %1, %.pre.i.i
  br i1 %.not.i.i, label %bsearch_garray.exit, label %18

18:                                               ; preds = %17
  %19 = add nuw i64 %12, 1
  br label %20

20:                                               ; preds = %18, %find_in_range.exit.i
  %.118.i.i = phi i64 [ %.01720.i.i, %18 ], [ %12, %find_in_range.exit.i ]
  %.1.i.i = phi i64 [ %19, %18 ], [ %.01621.i.i, %find_in_range.exit.i ]
  %21 = icmp ult i64 %.1.i.i, %.118.i.i
  br i1 %21, label %.lr.ph.i.i, label %bsearch_garray.exit, !llvm.loop !12

bsearch_garray.exit:                              ; preds = %.lr.ph.i.i, %17, %20, %2
  %.0.i.i = phi ptr [ null, %2 ], [ null, %20 ], [ %14, %17 ], [ %14, %.lr.ph.i.i ]
  ret ptr %.0.i.i
}